; Function Attrs: mustprogress uwtable
define internal noundef i64 @_ZN10open_spiel12_GLOBAL__N_19PolicyBot4StepERKNS_5StateE(ptr noundef nonnull align 8 dereferenceable(5024) %0, ptr noundef nonnull align 8 dereferenceable(60) %1) unnamed_addr #3 align 2 personality ptr @__gxx_personality_v0 {
  %3 = alloca %"struct.std::pair.106", align 8
  %4 = load ptr, ptr %0, align 8
  %5 = getelementptr inbounds i8, ptr %4, i64 96
  %6 = load ptr, ptr %5, align 8
  call void %6(ptr dead_on_unwind nonnull writable sret(%"struct.std::pair.106") align 8 %3, ptr noundef nonnull align 8 dereferenceable(5024) %0, ptr noundef nonnull align 8 dereferenceable(60) %1)
  %7 = getelementptr inbounds nuw i8, ptr %3, i64 24
  %8 = load i64, ptr %7, align 8
  %9 = load ptr, ptr %3, align 8
  %.not.i.i.i.i = icmp eq ptr %9, null
  br i1 %.not.i.i.i.i, label %_ZNSt4pairISt6vectorIS_IldESaIS1_EElED2Ev.exit, label %10

10:                                               ; preds = %2
  %11 = getelementptr inbounds nuw i8, ptr %3, i64 16
  %12 = load ptr, ptr %11, align 8
  %13 = ptrtoint ptr %12 to i64
  %14 = ptrtoint ptr %9 to i64
  %15 = sub i64 %13, %14
  call void @_ZdlPvm(ptr noundef nonnull %9, i64 noundef %15) #24
  br label %_ZNSt4pairISt6vectorIS_IldESaIS1_EElED2Ev.exit

_ZNSt4pairISt6vectorIS_IldESaIS1_EElED2Ev.exit:   ; preds = %2, %10
  ret i64 %8
}